target datalayout = "e-m:e-p270:32:32-p271:32:32-p272:64:64-i64:64-i128:128-f80:128-n8:16:32:64-S128"
target triple = "x86_64-pc-linux-gnu"

%struct.qtmd_model = type { i32, i32, ptr }
%struct.qtmd_modelsym = type { i16, i16 }

; Function Attrs: nounwind uwtable
define internal void @qtmd_update_model(ptr noundef %0) #0 {
  %2 = alloca ptr, align 8
  %3 = alloca %struct.qtmd_modelsym, align 2
  %4 = alloca i32, align 4
  %5 = alloca i32, align 4
  store ptr %0, ptr %2, align 8
  %6 = load ptr, ptr %2, align 8
  %7 = getelementptr inbounds %struct.qtmd_model, ptr %6, i32 0, i32 0
  %8 = load i32, ptr %7, align 8
  %9 = add nsw i32 %8, -1
  store i32 %9, ptr %7, align 8
  %10 = icmp ne i32 %9, 0
  br i1 %10, label %11, label %76

11:                                               ; preds = %1
  %12 = load ptr, ptr %2, align 8
  %13 = getelementptr inbounds %struct.qtmd_model, ptr %12, i32 0, i32 1
  %14 = load i32, ptr %13, align 4
  %15 = sub nsw i32 %14, 1
  store i32 %15, ptr %4, align 4
  br label %16

16:                                               ; preds = %72, %11
  %17 = load i32, ptr %4, align 4
  %18 = icmp sge i32 %17, 0
  br i1 %18, label %19, label %75

19:                                               ; preds = %16
  %20 = load ptr, ptr %2, align 8
  %21 = getelementptr inbounds %struct.qtmd_model, ptr %20, i32 0, i32 2
  %22 = load ptr, ptr %21, align 8
  %23 = load i32, ptr %4, align 4
  %24 = sext i32 %23 to i64
  %25 = getelementptr inbounds %struct.qtmd_modelsym, ptr %22, i64 %24
  %26 = getelementptr inbounds %struct.qtmd_modelsym, ptr %25, i32 0, i32 1
  %27 = load i16, ptr %26, align 2
  %28 = zext i16 %27 to i32
  %29 = ashr i32 %28, 1
  %30 = trunc i32 %29 to i16
  store i16 %30, ptr %26, align 2
  %31 = load ptr, ptr %2, align 8
  %32 = getelementptr inbounds %struct.qtmd_model, ptr %31, i32 0, i32 2
  %33 = load ptr, ptr %32, align 8
  %34 = load i32, ptr %4, align 4
  %35 = sext i32 %34 to i64
  %36 = getelementptr inbounds %struct.qtmd_modelsym, ptr %33, i64 %35
  %37 = getelementptr inbounds %struct.qtmd_modelsym, ptr %36, i32 0, i32 1
  %38 = load i16, ptr %37, align 2
  %39 = zext i16 %38 to i32
  %40 = load ptr, ptr %2, align 8
  %41 = getelementptr inbounds %struct.qtmd_model, ptr %40, i32 0, i32 2
  %42 = load ptr, ptr %41, align 8
  %43 = load i32, ptr %4, align 4
  %44 = add nsw i32 %43, 1
  %45 = sext i32 %44 to i64
  %46 = getelementptr inbounds %struct.qtmd_modelsym, ptr %42, i64 %45
  %47 = getelementptr inbounds %struct.qtmd_modelsym, ptr %46, i32 0, i32 1
  %48 = load i16, ptr %47, align 2
  %49 = zext i16 %48 to i32
  %50 = icmp sle i32 %39, %49
  br i1 %50, label %51, label %71

51:                                               ; preds = %19
  %52 = load ptr, ptr %2, align 8
  %53 = getelementptr inbounds %struct.qtmd_model, ptr %52, i32 0, i32 2
  %54 = load ptr, ptr %53, align 8
  %55 = load i32, ptr %4, align 4
  %56 = add nsw i32 %55, 1
  %57 = sext i32 %56 to i64
  %58 = getelementptr inbounds %struct.qtmd_modelsym, ptr %54, i64 %57
  %59 = getelementptr inbounds %struct.qtmd_modelsym, ptr %58, i32 0, i32 1
  %60 = load i16, ptr %59, align 2
  %61 = zext i16 %60 to i32
  %62 = add nsw i32 %61, 1
  %63 = trunc i32 %62 to i16
  %64 = load ptr, ptr %2, align 8
  %65 = getelementptr inbounds %struct.qtmd_model, ptr %64, i32 0, i32 2
  %66 = load ptr, ptr %65, align 8
  %67 = load i32, ptr %4, align 4
  %68 = sext i32 %67 to i64
  %69 = getelementptr inbounds %struct.qtmd_modelsym, ptr %66, i64 %68
  %70 = getelementptr inbounds %struct.qtmd_modelsym, ptr %69, i32 0, i32 1
  store i16 %63, ptr %70, align 2
  br label %71

71:                                               ; preds = %51, %19
  br label %72

72:                                               ; preds = %71
  %73 = load i32, ptr %4, align 4
  %74 = add nsw i32 %73, -1
  store i32 %74, ptr %4, align 4
  br label %16

75:                                               ; preds = %16
  br label %234

76:                                               ; preds = %1
  %77 = load ptr, ptr %2, align 8
  %78 = getelementptr inbounds %struct.qtmd_model, ptr %77, i32 0, i32 0
  store i32 50, ptr %78, align 8
  store i32 0, ptr %4, align 4
  br label %79

79:                                               ; preds = %127, %76
  %80 = load i32, ptr %4, align 4
  %81 = load ptr, ptr %2, align 8
  %82 = getelementptr inbounds %struct.qtmd_model, ptr %81, i32 0, i32 1
  %83 = load i32, ptr %82, align 4
  %84 = icmp slt i32 %80, %83
  br i1 %84, label %85, label %130

85:                                               ; preds = %79
  %86 = load ptr, ptr %2, align 8
  %87 = getelementptr inbounds %struct.qtmd_model, ptr %86, i32 0, i32 2
  %88 = load ptr, ptr %87, align 8
  %89 = load i32, ptr %4, align 4
  %90 = add nsw i32 %89, 1
  %91 = sext i32 %90 to i64
  %92 = getelementptr inbounds %struct.qtmd_modelsym, ptr %88, i64 %91
  %93 = getelementptr inbounds %struct.qtmd_modelsym, ptr %92, i32 0, i32 1
  %94 = load i16, ptr %93, align 2
  %95 = zext i16 %94 to i32
  %96 = load ptr, ptr %2, align 8
  %97 = getelementptr inbounds %struct.qtmd_model, ptr %96, i32 0, i32 2
  %98 = load ptr, ptr %97, align 8
  %99 = load i32, ptr %4, align 4
  %100 = sext i32 %99 to i64
  %101 = getelementptr inbounds %struct.qtmd_modelsym, ptr %98, i64 %100
  %102 = getelementptr inbounds %struct.qtmd_modelsym, ptr %101, i32 0, i32 1
  %103 = load i16, ptr %102, align 2
  %104 = zext i16 %103 to i32
  %105 = sub nsw i32 %104, %95
  %106 = trunc i32 %105 to i16
  store i16 %106, ptr %102, align 2
  %107 = load ptr, ptr %2, align 8
  %108 = getelementptr inbounds %struct.qtmd_model, ptr %107, i32 0, i32 2
  %109 = load ptr, ptr %108, align 8
  %110 = load i32, ptr %4, align 4
  %111 = sext i32 %110 to i64
  %112 = getelementptr inbounds %struct.qtmd_modelsym, ptr %109, i64 %111
  %113 = getelementptr inbounds %struct.qtmd_modelsym, ptr %112, i32 0, i32 1
  %114 = load i16, ptr %113, align 2
  %115 = add i16 %114, 1
  store i16 %115, ptr %113, align 2
  %116 = load ptr, ptr %2, align 8
  %117 = getelementptr inbounds %struct.qtmd_model, ptr %116, i32 0, i32 2
  %118 = load ptr, ptr %117, align 8
  %119 = load i32, ptr %4, align 4
  %120 = sext i32 %119 to i64
  %121 = getelementptr inbounds %struct.qtmd_modelsym, ptr %118, i64 %120
  %122 = getelementptr inbounds %struct.qtmd_modelsym, ptr %121, i32 0, i32 1
  %123 = load i16, ptr %122, align 2
  %124 = zext i16 %123 to i32
  %125 = ashr i32 %124, 1
  %126 = trunc i32 %125 to i16
  store i16 %126, ptr %122, align 2
  br label %127

127:                                              ; preds = %85
  %128 = load i32, ptr %4, align 4
  %129 = add nsw i32 %128, 1
  store i32 %129, ptr %4, align 4
  br label %79

130:                                              ; preds = %79
  store i32 0, ptr %4, align 4
  br label %131

131:                                              ; preds = %197, %130
  %132 = load i32, ptr %4, align 4
  %133 = load ptr, ptr %2, align 8
  %134 = getelementptr inbounds %struct.qtmd_model, ptr %133, i32 0, i32 1
  %135 = load i32, ptr %134, align 4
  %136 = sub nsw i32 %135, 1
  %137 = icmp slt i32 %132, %136
  br i1 %137, label %138, label %200

138:                                              ; preds = %131
  %139 = load i32, ptr %4, align 4
  %140 = add nsw i32 %139, 1
  store i32 %140, ptr %5, align 4
  br label %141

141:                                              ; preds = %193, %138
  %142 = load i32, ptr %5, align 4
  %143 = load ptr, ptr %2, align 8
  %144 = getelementptr inbounds %struct.qtmd_model, ptr %143, i32 0, i32 1
  %145 = load i32, ptr %144, align 4
  %146 = icmp slt i32 %142, %145
  br i1 %146, label %147, label %196

147:                                              ; preds = %141
  %148 = load ptr, ptr %2, align 8
  %149 = getelementptr inbounds %struct.qtmd_model, ptr %148, i32 0, i32 2
  %150 = load ptr, ptr %149, align 8
  %151 = load i32, ptr %4, align 4
  %152 = sext i32 %151 to i64
  %153 = getelementptr inbounds %struct.qtmd_modelsym, ptr %150, i64 %152
  %154 = getelementptr inbounds %struct.qtmd_modelsym, ptr %153, i32 0, i32 1
  %155 = load i16, ptr %154, align 2
  %156 = zext i16 %155 to i32
  %157 = load ptr, ptr %2, align 8
  %158 = getelementptr inbounds %struct.qtmd_model, ptr %157, i32 0, i32 2
  %159 = load ptr, ptr %158, align 8
  %160 = load i32, ptr %5, align 4
  %161 = sext i32 %160 to i64
  %162 = getelementptr inbounds %struct.qtmd_modelsym, ptr %159, i64 %161
  %163 = getelementptr inbounds %struct.qtmd_modelsym, ptr %162, i32 0, i32 1
  %164 = load i16, ptr %163, align 2
  %165 = zext i16 %164 to i32
  %166 = icmp slt i32 %156, %165
  br i1 %166, label %167, label %192

167:                                              ; preds = %147
  %168 = load ptr, ptr %2, align 8
  %169 = getelementptr inbounds %struct.qtmd_model, ptr %168, i32 0, i32 2
  %170 = load ptr, ptr %169, align 8
  %171 = load i32, ptr %4, align 4
  %172 = sext i32 %171 to i64
  %173 = getelementptr inbounds %struct.qtmd_modelsym, ptr %170, i64 %172
  call void @llvm.memcpy.p0.p0.i64(ptr align 2 %3, ptr align 2 %173, i64 4, i1 false)
  %174 = load ptr, ptr %2, align 8
  %175 = getelementptr inbounds %struct.qtmd_model, ptr %174, i32 0, i32 2
  %176 = load ptr, ptr %175, align 8
  %177 = load i32, ptr %4, align 4
  %178 = sext i32 %177 to i64
  %179 = getelementptr inbounds %struct.qtmd_modelsym, ptr %176, i64 %178
  %180 = load ptr, ptr %2, align 8
  %181 = getelementptr inbounds %struct.qtmd_model, ptr %180, i32 0, i32 2
  %182 = load ptr, ptr %181, align 8
  %183 = load i32, ptr %5, align 4
  %184 = sext i32 %183 to i64
  %185 = getelementptr inbounds %struct.qtmd_modelsym, ptr %182, i64 %184
  call void @llvm.memcpy.p0.p0.i64(ptr align 2 %179, ptr align 2 %185, i64 4, i1 false)
  %186 = load ptr, ptr %2, align 8
  %187 = getelementptr inbounds %struct.qtmd_model, ptr %186, i32 0, i32 2
  %188 = load ptr, ptr %187, align 8
  %189 = load i32, ptr %5, align 4
  %190 = sext i32 %189 to i64
  %191 = getelementptr inbounds %struct.qtmd_modelsym, ptr %188, i64 %190
  call void @llvm.memcpy.p0.p0.i64(ptr align 2 %191, ptr align 2 %3, i64 4, i1 false)
  br label %192

192:                                              ; preds = %167, %147
  br label %193

193:                                              ; preds = %192
  %194 = load i32, ptr %5, align 4
  %195 = add nsw i32 %194, 1
  store i32 %195, ptr %5, align 4
  br label %141

196:                                              ; preds = %141
  br label %197

197:                                              ; preds = %196
  %198 = load i32, ptr %4, align 4
  %199 = add nsw i32 %198, 1
  store i32 %199, ptr %4, align 4
  br label %131

200:                                              ; preds = %131
  %201 = load ptr, ptr %2, align 8
  %202 = getelementptr inbounds %struct.qtmd_model, ptr %201, i32 0, i32 1
  %203 = load i32, ptr %202, align 4
  %204 = sub nsw i32 %203, 1
  store i32 %204, ptr %4, align 4
  br label %205

205:                                              ; preds = %230, %200
  %206 = load i32, ptr %4, align 4
  %207 = icmp sge i32 %206, 0
  br i1 %207, label %208, label %233

208:                                              ; preds = %205
  %209 = load ptr, ptr %2, align 8
  %210 = getelementptr inbounds %struct.qtmd_model, ptr %209, i32 0, i32 2
  %211 = load ptr, ptr %210, align 8
  %212 = load i32, ptr %4, align 4
  %213 = add nsw i32 %212, 1
  %214 = sext i32 %213 to i64
  %215 = getelementptr inbounds %struct.qtmd_modelsym, ptr %211, i64 %214
  %216 = getelementptr inbounds %struct.qtmd_modelsym, ptr %215, i32 0, i32 1
  %217 = load i16, ptr %216, align 2
  %218 = zext i16 %217 to i32
  %219 = load ptr, ptr %2, align 8
  %220 = getelementptr inbounds %struct.qtmd_model, ptr %219, i32 0, i32 2
  %221 = load ptr, ptr %220, align 8
  %222 = load i32, ptr %4, align 4
  %223 = sext i32 %222 to i64
  %224 = getelementptr inbounds %struct.qtmd_modelsym, ptr %221, i64 %223
  %225 = getelementptr inbounds %struct.qtmd_modelsym, ptr %224, i32 0, i32 1
  %226 = load i16, ptr %225, align 2
  %227 = zext i16 %226 to i32
  %228 = add nsw i32 %227, %218
  %229 = trunc i32 %228 to i16
  store i16 %229, ptr %225, align 2
  br label %230

230:                                              ; preds = %208
  %231 = load i32, ptr %4, align 4
  %232 = add nsw i32 %231, -1
  store i32 %232, ptr %4, align 4
  br label %205

233:                                              ; preds = %205
  br label %234

234:                                              ; preds = %233, %75
  ret void
}