; Function Attrs: nofree norecurse nosync nounwind memory(readwrite, inaccessiblemem: none) uwtable
define internal fastcc void @qtmd_update_model(ptr noundef nonnull captures(none) %0) unnamed_addr #1 {
  %2 = load i32, ptr %0, align 8
  %3 = add nsw i32 %2, -1
  store i32 %3, ptr %0, align 8
  %.not = icmp eq i32 %3, 0
  br i1 %.not, label %24, label %4

4:                                                ; preds = %1
  %5 = getelementptr inbounds nuw i8, ptr %0, i64 4
  %6 = load i32, ptr %5, align 4
  %7 = icmp sgt i32 %6, 0
  br i1 %7, label %.lr.ph, label %.loopexit

.lr.ph:                                           ; preds = %4
  %8 = getelementptr inbounds nuw i8, ptr %0, i64 8
  %9 = zext nneg i32 %6 to i64
  br label %10

10:                                               ; preds = %.lr.ph, %22
  %indvars.iv = phi i64 [ %9, %.lr.ph ], [ %indvars.iv.next, %22 ]
  %indvars.iv.next = add nsw i64 %indvars.iv, -1
  %11 = load ptr, ptr %8, align 8
  %12 = getelementptr inbounds nuw %struct.qtmd_modelsym, ptr %11, i64 %indvars.iv.next, i32 1
  %13 = load i16, ptr %12, align 2
  %14 = lshr i16 %13, 1
  store i16 %14, ptr %12, align 2
  %15 = load ptr, ptr %8, align 8
  %16 = getelementptr inbounds nuw %struct.qtmd_modelsym, ptr %15, i64 %indvars.iv.next, i32 1
  %17 = load i16, ptr %16, align 2
  %18 = getelementptr inbounds nuw %struct.qtmd_modelsym, ptr %15, i64 %indvars.iv, i32 1
  %19 = load i16, ptr %18, align 2
  %.not54 = icmp ugt i16 %17, %19
  br i1 %.not54, label %22, label %20

20:                                               ; preds = %10
  %21 = add i16 %19, 1
  store i16 %21, ptr %16, align 2
  br label %22

22:                                               ; preds = %10, %20
  %23 = icmp samesign ugt i64 %indvars.iv, 1
  br i1 %23, label %10, label %.loopexit

24:                                               ; preds = %1
  store i32 50, ptr %0, align 8
  %25 = getelementptr inbounds nuw i8, ptr %0, i64 4
  %26 = load i32, ptr %25, align 4
  %27 = icmp sgt i32 %26, 0
  br i1 %27, label %.lr.ph63, label %.loopexit

.lr.ph63:                                         ; preds = %24
  %28 = getelementptr inbounds nuw i8, ptr %0, i64 8
  br label %32

.preheader56:                                     ; preds = %32
  %29 = add nsw i32 %47, -1
  %30 = icmp sgt i32 %47, 1
  br i1 %30, label %.lr.ph67, label %.preheader

.lr.ph67:                                         ; preds = %.preheader56
  %31 = getelementptr inbounds nuw i8, ptr %0, i64 8
  br label %57

32:                                               ; preds = %.lr.ph63, %32
  %indvars.iv73 = phi i64 [ 0, %.lr.ph63 ], [ %indvars.iv.next74, %32 ]
  %33 = load ptr, ptr %28, align 8
  %indvars.iv.next74 = add nuw nsw i64 %indvars.iv73, 1
  %34 = getelementptr inbounds nuw %struct.qtmd_modelsym, ptr %33, i64 %indvars.iv.next74, i32 1
  %35 = load i16, ptr %34, align 2
  %36 = getelementptr inbounds nuw %struct.qtmd_modelsym, ptr %33, i64 %indvars.iv73, i32 1
  %37 = load i16, ptr %36, align 2
  %38 = sub i16 %37, %35
  store i16 %38, ptr %36, align 2
  %39 = load ptr, ptr %28, align 8
  %40 = getelementptr inbounds nuw %struct.qtmd_modelsym, ptr %39, i64 %indvars.iv73, i32 1
  %41 = load i16, ptr %40, align 2
  %42 = add i16 %41, 1
  store i16 %42, ptr %40, align 2
  %43 = load ptr, ptr %28, align 8
  %44 = getelementptr inbounds nuw %struct.qtmd_modelsym, ptr %43, i64 %indvars.iv73, i32 1
  %45 = load i16, ptr %44, align 2
  %46 = lshr i16 %45, 1
  store i16 %46, ptr %44, align 2
  %47 = load i32, ptr %25, align 4
  %48 = sext i32 %47 to i64
  %49 = icmp slt i64 %indvars.iv.next74, %48
  br i1 %49, label %32, label %.preheader56

.loopexit55:                                      ; preds = %76, %57
  %50 = phi i32 [ %58, %57 ], [ %77, %76 ]
  %51 = add nsw i32 %50, -1
  %52 = sext i32 %51 to i64
  %53 = icmp slt i64 %indvars.iv.next82, %52
  %indvars.iv.next77 = add nuw nsw i64 %indvars.iv76, 1
  br i1 %53, label %57, label %.preheader

.preheader:                                       ; preds = %.loopexit55, %.preheader56
  %.lcssa = phi i32 [ %29, %.preheader56 ], [ %51, %.loopexit55 ]
  %54 = icmp sgt i32 %.lcssa, -1
  br i1 %54, label %.lr.ph69, label %.loopexit

.lr.ph69:                                         ; preds = %.preheader
  %55 = getelementptr inbounds nuw i8, ptr %0, i64 8
  %56 = zext nneg i32 %.lcssa to i64
  br label %81

57:                                               ; preds = %.lr.ph67, %.loopexit55
  %58 = phi i32 [ %47, %.lr.ph67 ], [ %50, %.loopexit55 ]
  %indvars.iv81 = phi i64 [ 0, %.lr.ph67 ], [ %indvars.iv.next82, %.loopexit55 ]
  %indvars.iv76 = phi i64 [ 1, %.lr.ph67 ], [ %indvars.iv.next77, %.loopexit55 ]
  %indvars.iv.next82 = add nuw nsw i64 %indvars.iv81, 1
  %59 = sext i32 %58 to i64
  %60 = icmp slt i64 %indvars.iv.next82, %59
  br i1 %60, label %.lr.ph65, label %.loopexit55

.lr.ph65:                                         ; preds = %57, %76
  %61 = phi i32 [ %77, %76 ], [ %58, %57 ]
  %62 = phi i32 [ %78, %76 ], [ %58, %57 ]
  %indvars.iv78 = phi i64 [ %indvars.iv.next79, %76 ], [ %indvars.iv76, %57 ]
  %63 = load ptr, ptr %31, align 8
  %64 = getelementptr inbounds nuw %struct.qtmd_modelsym, ptr %63, i64 %indvars.iv81
  %65 = getelementptr inbounds nuw i8, ptr %64, i64 2
  %66 = load i16, ptr %65, align 2
  %67 = getelementptr inbounds nuw %struct.qtmd_modelsym, ptr %63, i64 %indvars.iv78, i32 1
  %68 = load i16, ptr %67, align 2
  %69 = icmp ult i16 %66, %68
  br i1 %69, label %70, label %76

70:                                               ; preds = %.lr.ph65
  %71 = load i32, ptr %64, align 2
  %72 = getelementptr inbounds nuw %struct.qtmd_modelsym, ptr %63, i64 %indvars.iv78
  %73 = load i32, ptr %72, align 2
  store i32 %73, ptr %64, align 2
  %74 = load ptr, ptr %31, align 8
  %75 = getelementptr inbounds nuw %struct.qtmd_modelsym, ptr %74, i64 %indvars.iv78
  store i32 %71, ptr %75, align 2
  %.pre = load i32, ptr %25, align 4
  br label %76

76:                                               ; preds = %.lr.ph65, %70
  %77 = phi i32 [ %61, %.lr.ph65 ], [ %.pre, %70 ]
  %78 = phi i32 [ %62, %.lr.ph65 ], [ %.pre, %70 ]
  %indvars.iv.next79 = add nuw nsw i64 %indvars.iv78, 1
  %79 = sext i32 %78 to i64
  %80 = icmp slt i64 %indvars.iv.next79, %79
  br i1 %80, label %.lr.ph65, label %.loopexit55

81:                                               ; preds = %.lr.ph69, %81
  %indvars.iv84 = phi i64 [ %56, %.lr.ph69 ], [ %indvars.iv.next85, %81 ]
  %82 = load ptr, ptr %55, align 8
  %83 = getelementptr inbounds nuw %struct.qtmd_modelsym, ptr %82, i64 %indvars.iv84
  %84 = getelementptr inbounds nuw i8, ptr %83, i64 6
  %85 = load i16, ptr %84, align 2
  %86 = getelementptr inbounds nuw %struct.qtmd_modelsym, ptr %82, i64 %indvars.iv84, i32 1
  %87 = load i16, ptr %86, align 2
  %88 = add i16 %87, %85
  store i16 %88, ptr %86, align 2
  %indvars.iv.next85 = add nsw i64 %indvars.iv84, -1
  %.not92 = icmp eq i64 %indvars.iv84, 0
  br i1 %.not92, label %.loopexit, label %81

.loopexit:                                        ; preds = %22, %81, %24, %4, %.preheader
  ret void
}